target datalayout = "e-m:e-p270:32:32-p271:32:32-p272:64:64-i64:64-i128:128-f80:128-n8:16:32:64-S128"
target triple = "x86_64-pc-linux-gnu"

%"class.sat::literal" = type { i32 }
%"class.pb::pbc" = type <{ %"class.pb::constraint", i32, i32, i32, [0 x %"struct.std::pair"], [4 x i8] }>
%"class.pb::constraint" = type { ptr, i32, i8, %"class.sat::literal", %"class.sat::literal", i32, i32, i32, i64, i8, i32, i8, i32 }
%"struct.std::pair" = type { i32, %"class.sat::literal" }

; Function Attrs: mustprogress nounwind uwtable
define linkonce_odr hidden noundef i32 @_ZNK2pb10constraint1kEv(ptr noundef nonnull align 8 dereferenceable(64) %0) #4 comdat align 2 {
  %2 = alloca ptr, align 8
  store ptr %0, ptr %2, align 8, !tbaa !3
  %3 = load ptr, ptr %2, align 8
  %4 = getelementptr inbounds nuw %"class.pb::constraint", ptr %3, i32 0, i32 12
  %5 = load i32, ptr %4, align 4, !tbaa !46
  ret i32 %5
}

; Function Attrs: mustprogress nounwind uwtable
define linkonce_odr hidden noundef ptr @_ZNK2pb3pbc3endEv(ptr noundef nonnull align 8 dereferenceable(76) %0) #4 comdat align 2 {
  %2 = alloca ptr, align 8
  store ptr %0, ptr %2, align 8, !tbaa !8
  %3 = load ptr, ptr %2, align 8
  %4 = call noundef ptr @_ZNK2pb3pbc5beginEv(ptr noundef nonnull align 8 dereferenceable(76) %3)
  %5 = getelementptr inbounds nuw %"class.pb::constraint", ptr %3, i32 0, i32 7
  %6 = load i32, ptr %5, align 8, !tbaa !41
  %7 = zext i32 %6 to i64
  %8 = getelementptr inbounds nuw %"struct.std::pair", ptr %4, i64 %7
  ret ptr %8
}

; Function Attrs: mustprogress nounwind uwtable
define linkonce_odr hidden noundef ptr @_ZNK2pb3pbc5beginEv(ptr noundef nonnull align 8 dereferenceable(76) %0) #4 comdat align 2 {
  %2 = alloca ptr, align 8
  store ptr %0, ptr %2, align 8, !tbaa !8
  %3 = load ptr, ptr %2, align 8
  %4 = getelementptr inbounds nuw %"class.pb::pbc", ptr %3, i32 0, i32 4
  %5 = getelementptr inbounds [0 x %"struct.std::pair"], ptr %4, i64 0, i64 0
  ret ptr %5
}

; Function Attrs: mustprogress uwtable
define hidden noundef i32 @_ZNK2pb3pbc4evalERKNS_16solver_interfaceE(ptr noundef nonnull align 8 dereferenceable(76) %0, ptr noundef nonnull align 8 dereferenceable(8) %1) unnamed_addr #5 align 2 {
  %3 = alloca i32, align 4
  %4 = alloca ptr, align 8
  %5 = alloca ptr, align 8
  %6 = alloca ptr, align 8
  %7 = alloca i32, align 4
  %8 = alloca i32, align 4
  %9 = alloca ptr, align 8
  %10 = alloca ptr, align 8
  %11 = alloca ptr, align 8
  %12 = alloca %"struct.std::pair", align 4
  %13 = alloca %"class.sat::literal", align 4
  %14 = alloca i32, align 4
  store ptr %0, ptr %4, align 8, !tbaa !8
  store ptr %1, ptr %5, align 8, !tbaa !65
  %15 = load ptr, ptr %4, align 8
  call void @llvm.lifetime.start.p0(i64 8, ptr %6) #3
  store ptr %15, ptr %6, align 8, !tbaa !8
  call void @llvm.lifetime.start.p0(i64 4, ptr %7) #3
  store i32 0, ptr %7, align 4, !tbaa !10
  call void @llvm.lifetime.start.p0(i64 4, ptr %8) #3
  store i32 0, ptr %8, align 4, !tbaa !10
  call void @llvm.lifetime.start.p0(i64 8, ptr %9) #3
  %16 = load ptr, ptr %6, align 8, !tbaa !8
  store ptr %16, ptr %9, align 8, !tbaa !8
  call void @llvm.lifetime.start.p0(i64 8, ptr %10) #3
  %17 = load ptr, ptr %9, align 8, !tbaa !8
  %18 = call noundef ptr @_ZNK2pb3pbc5beginEv(ptr noundef nonnull align 8 dereferenceable(76) %17)
  store ptr %18, ptr %10, align 8, !tbaa !47
  call void @llvm.lifetime.start.p0(i64 8, ptr %11) #3
  %19 = load ptr, ptr %9, align 8, !tbaa !8
  %20 = call noundef ptr @_ZNK2pb3pbc3endEv(ptr noundef nonnull align 8 dereferenceable(76) %19)
  store ptr %20, ptr %11, align 8, !tbaa !47
  br label %21

21:                                               ; preds = %48, %2
  %22 = load ptr, ptr %10, align 8, !tbaa !47
  %23 = load ptr, ptr %11, align 8, !tbaa !47
  %24 = icmp ne ptr %22, %23
  br i1 %24, label %26, label %25

25:                                               ; preds = %21
  call void @llvm.lifetime.end.p0(i64 8, ptr %11) #3
  call void @llvm.lifetime.end.p0(i64 8, ptr %10) #3
  call void @llvm.lifetime.end.p0(i64 8, ptr %9) #3
  br label %51

26:                                               ; preds = %21
  call void @llvm.lifetime.start.p0(i64 8, ptr %12) #3
  %27 = load ptr, ptr %10, align 8, !tbaa !47
  call void @llvm.memcpy.p0.p0.i64(ptr align 4 %12, ptr align 4 %27, i64 8, i1 false)
  %28 = load ptr, ptr %5, align 8, !tbaa !65
  %29 = getelementptr inbounds nuw %"struct.std::pair", ptr %12, i32 0, i32 1
  call void @llvm.memcpy.p0.p0.i64(ptr align 4 %13, ptr align 4 %29, i64 4, i1 false), !tbaa.struct !14
  %30 = getelementptr inbounds nuw %"class.sat::literal", ptr %13, i32 0, i32 0
  %31 = load i32, ptr %30, align 4
  %32 = load ptr, ptr %28, align 8, !tbaa !15
  %33 = getelementptr inbounds ptr, ptr %32, i64 3
  %34 = load ptr, ptr %33, align 8
  %35 = call noundef i32 %34(ptr noundef nonnull align 8 dereferenceable(8) %28, i32 %31)
  switch i32 %35, label %46 [
    i32 1, label %36
    i32 0, label %41
  ]

36:                                               ; preds = %26
  %37 = getelementptr inbounds nuw %"struct.std::pair", ptr %12, i32 0, i32 0
  %38 = load i32, ptr %37, align 4, !tbaa !26
  %39 = load i32, ptr %7, align 4, !tbaa !10
  %40 = add i32 %39, %38
  store i32 %40, ptr %7, align 4, !tbaa !10
  br label %47

41:                                               ; preds = %26
  %42 = getelementptr inbounds nuw %"struct.std::pair", ptr %12, i32 0, i32 0
  %43 = load i32, ptr %42, align 4, !tbaa !26
  %44 = load i32, ptr %8, align 4, !tbaa !10
  %45 = add i32 %44, %43
  store i32 %45, ptr %8, align 4, !tbaa !10
  br label %47

46:                                               ; preds = %26
  br label %47

47:                                               ; preds = %46, %41, %36
  call void @llvm.lifetime.end.p0(i64 8, ptr %12) #3
  br label %48

48:                                               ; preds = %47
  %49 = load ptr, ptr %10, align 8, !tbaa !47
  %50 = getelementptr inbounds nuw %"struct.std::pair", ptr %49, i32 1
  store ptr %50, ptr %10, align 8, !tbaa !47
  br label %21

51:                                               ; preds = %25
  %52 = load i32, ptr %7, align 4, !tbaa !10
  %53 = load i32, ptr %8, align 4, !tbaa !10
  %54 = add i32 %52, %53
  %55 = load ptr, ptr %6, align 8, !tbaa !8
  %56 = call noundef i32 @_ZNK2pb10constraint1kEv(ptr noundef nonnull align 8 dereferenceable(64) %55)
  %57 = icmp ult i32 %54, %56
  br i1 %57, label %58, label %59

58:                                               ; preds = %51
  store i32 -1, ptr %3, align 4
  store i32 1, ptr %14, align 4
  br label %66

59:                                               ; preds = %51
  %60 = load i32, ptr %7, align 4, !tbaa !10
  %61 = load ptr, ptr %6, align 8, !tbaa !8
  %62 = call noundef i32 @_ZNK2pb10constraint1kEv(ptr noundef nonnull align 8 dereferenceable(64) %61)
  %63 = icmp uge i32 %60, %62
  br i1 %63, label %64, label %65

64:                                               ; preds = %59
  store i32 1, ptr %3, align 4
  store i32 1, ptr %14, align 4
  br label %66

65:                                               ; preds = %59
  store i32 0, ptr %3, align 4
  store i32 1, ptr %14, align 4
  br label %66

66:                                               ; preds = %65, %64, %58
  call void @llvm.lifetime.end.p0(i64 4, ptr %8) #3
  call void @llvm.lifetime.end.p0(i64 4, ptr %7) #3
  call void @llvm.lifetime.end.p0(i64 8, ptr %6) #3
  %67 = load i32, ptr %3, align 4
  ret i32 %67
}